; ModuleID = '3/2550.c'
source_filename = "3/2550.c"
target datalayout = "e-m:e-p270:32:32-p271:32:32-p272:64:64-i64:64-f80:128-n8:16:32:64-S128"
target triple = "x86_64-pc-linux-gnu"

@n = dso_local global i32 0, align 4
@m = dso_local global i32 0, align 4
@i = dso_local global i32 0, align 4
@t = dso_local global i32 0, align 4
@w = dso_local global i32 0, align 4
@e = dso_local global i32 10000, align 4
@q = dso_local global i32 0, align 4
@r = dso_local global i32 0, align 4
@k = dso_local global i32 0, align 4
@p = dso_local global i32 0, align 4
@.str = private unnamed_addr constant [6 x i8] c"%d %d\00", align 1
@.str.1 = private unnamed_addr constant [4 x i8] c"%d \00", align 1
@a = common dso_local global [10000 x i32] zeroinitializer, align 16
@.str.2 = private unnamed_addr constant [4 x i8] c"yes\00", align 1
@.str.3 = private unnamed_addr constant [3 x i8] c"no\00", align 1
@b = common dso_local global [10000 x i32] zeroinitializer, align 16
@c = common dso_local global [10000 x i32] zeroinitializer, align 16
@d = common dso_local global [10000 x i32] zeroinitializer, align 16

; Function Attrs: noinline nounwind uwtable
define dso_local i32 @main() #0 {
  %1 = alloca i32, align 4
  store i32 0, i32* %1, align 4
  %2 = call i32 (i8*, ...) @__isoc99_scanf(i8* getelementptr inbounds ([6 x i8], [6 x i8]* @.str, i64 0, i64 0), i32* @n, i32* @p)
  store i32 0, i32* @i, align 4
  br label %3

3:                                                ; preds = %12, %0
  %4 = load i32, i32* @i, align 4
  %5 = load i32, i32* @n, align 4
  %6 = icmp slt i32 %4, %5
  br i1 %6, label %7, label %15

7:                                                ; preds = %3
  %8 = load i32, i32* @i, align 4
  %9 = sext i32 %8 to i64
  %10 = getelementptr inbounds [10000 x i32], [10000 x i32]* @a, i64 0, i64 %9
  %11 = call i32 (i8*, ...) @__isoc99_scanf(i8* getelementptr inbounds ([4 x i8], [4 x i8]* @.str.1, i64 0, i64 0), i32* %10)
  br label %12

12:                                               ; preds = %7
  %13 = load i32, i32* @i, align 4
  %14 = add nsw i32 %13, 1
  store i32 %14, i32* @i, align 4
  br label %3

15:                                               ; preds = %3
  store i32 0, i32* @i, align 4
  br label %16

16:                                               ; preds = %44, %15
  %17 = load i32, i32* @i, align 4
  %18 = load i32, i32* @n, align 4
  %19 = icmp slt i32 %17, %18
  br i1 %19, label %20, label %47

20:                                               ; preds = %16
  %21 = load i32, i32* @i, align 4
  store i32 %21, i32* @k, align 4
  br label %22

22:                                               ; preds = %40, %20
  %23 = load i32, i32* @k, align 4
  %24 = load i32, i32* @n, align 4
  %25 = icmp slt i32 %23, %24
  br i1 %25, label %26, label %43

26:                                               ; preds = %22
  %27 = load i32, i32* @i, align 4
  %28 = sext i32 %27 to i64
  %29 = getelementptr inbounds [10000 x i32], [10000 x i32]* @a, i64 0, i64 %28
  %30 = load i32, i32* %29, align 4
  %31 = load i32, i32* @k, align 4
  %32 = sext i32 %31 to i64
  %33 = getelementptr inbounds [10000 x i32], [10000 x i32]* @a, i64 0, i64 %32
  %34 = load i32, i32* %33, align 4
  %35 = add nsw i32 %30, %34
  %36 = load i32, i32* @p, align 4
  %37 = icmp eq i32 %35, %36
  br i1 %37, label %38, label %39

38:                                               ; preds = %26
  store i32 1, i32* @q, align 4
  br label %39

39:                                               ; preds = %38, %26
  br label %40

40:                                               ; preds = %39
  %41 = load i32, i32* @k, align 4
  %42 = add nsw i32 %41, 1
  store i32 %42, i32* @k, align 4
  br label %22

43:                                               ; preds = %22
  br label %44

44:                                               ; preds = %43
  %45 = load i32, i32* @i, align 4
  %46 = add nsw i32 %45, 1
  store i32 %46, i32* @i, align 4
  br label %16

47:                                               ; preds = %16
  %48 = load i32, i32* @q, align 4
  %49 = icmp eq i32 %48, 1
  br i1 %49, label %50, label %52

50:                                               ; preds = %47
  %51 = call i32 (i8*, ...) @printf(i8* getelementptr inbounds ([4 x i8], [4 x i8]* @.str.2, i64 0, i64 0))
  br label %54

52:                                               ; preds = %47
  %53 = call i32 (i8*, ...) @printf(i8* getelementptr inbounds ([3 x i8], [3 x i8]* @.str.3, i64 0, i64 0))
  br label %54

54:                                               ; preds = %52, %50
  ret i32 0
}

declare dso_local i32 @__isoc99_scanf(i8*, ...) #1

declare dso_local i32 @printf(i8*, ...) #1


!llvm.module.flags = !{!0}
!llvm.ident = !{!1}

!0 = !{i32 1, !"wchar_size", i32 4}
!1 = !{!"clang version 10.0.0-4ubuntu1 "}
